target datalayout = "e-m:e-p270:32:32-p271:32:32-p272:64:64-i64:64-i128:128-f80:128-n8:16:32:64-S128"
target triple = "x86_64-unknown-linux-gnu"

%class.doc_manager = type { %class.tbv_manager, ptr, %class.small_object_allocator }
%class.tbv_manager = type { %class.fixed_bit_vector_manager, %class.ptr_vector }
%class.fixed_bit_vector_manager = type <{ %class.small_object_allocator, i32, i32, i32, i32, %class.fixed_bit_vector, [4 x i8] }>
%class.fixed_bit_vector = type { [1 x i32] }
%class.ptr_vector = type { %class.vector }
%class.vector = type { ptr }
%class.small_object_allocator = type { [32 x ptr], [32 x ptr], i64 }
%class.doc = type { ptr, %class.union_bvec }
%class.union_bvec = type { %class.buffer }
%class.buffer = type { ptr, i32, i32, [8 x %"union.std::aligned_storage<8, 8>::type"] }
%"union.std::aligned_storage<8, 8>::type" = type { [8 x i8] }

; Function Attrs: mustprogress nounwind uwtable
define linkonce_odr hidden noundef zeroext i1 @_ZNK6bufferIP3tbvLb0ELj8EE5emptyEv(ptr noundef nonnull align 8 dereferenceable(80) %this) #5 comdat align 2 {
entry:
  %this.addr = alloca ptr, align 8
  store ptr %this, ptr %this.addr, align 8
  %this1 = load ptr, ptr %this.addr, align 8
  %m_pos = getelementptr inbounds %class.buffer, ptr %this1, i32 0, i32 1
  %0 = load i32, ptr %m_pos, align 8
  %cmp = icmp eq i32 %0, 0
  ret i1 %cmp
}

; Function Attrs: mustprogress nounwind uwtable
define linkonce_odr hidden noundef nonnull align 4 dereferenceable(4) ptr @_ZNK3doc3posEv(ptr noundef nonnull align 8 dereferenceable(88) %this) #5 comdat align 2 {
entry:
  %this.addr = alloca ptr, align 8
  store ptr %this, ptr %this.addr, align 8
  %this1 = load ptr, ptr %this.addr, align 8
  %m_pos = getelementptr inbounds %class.doc, ptr %this1, i32 0, i32 0
  %0 = load ptr, ptr %m_pos, align 8
  ret ptr %0
}

; Function Attrs: mustprogress uwtable
define linkonce_odr hidden noundef zeroext i1 @_ZNK10union_bvecI11tbv_manager3tbvE8is_emptyEv(ptr noundef nonnull align 8 dereferenceable(80) %this) #4 comdat align 2 {
entry:
  %this.addr = alloca ptr, align 8
  store ptr %this, ptr %this.addr, align 8
  %this1 = load ptr, ptr %this.addr, align 8
  %m_elems = getelementptr inbounds %class.union_bvec, ptr %this1, i32 0, i32 0
  %call = call noundef zeroext i1 @_ZNK6bufferIP3tbvLb0ELj8EE5emptyEv(ptr noundef nonnull align 8 dereferenceable(80) %m_elems)
  ret i1 %call
}

; Function Attrs: mustprogress nounwind uwtable
define linkonce_odr hidden noundef nonnull align 8 dereferenceable(80) ptr @_ZNK3doc3negEv(ptr noundef nonnull align 8 dereferenceable(88) %this) #5 comdat align 2 {
entry:
  %this.addr = alloca ptr, align 8
  store ptr %this, ptr %this.addr, align 8
  %this1 = load ptr, ptr %this.addr, align 8
  %m_neg = getelementptr inbounds %class.doc, ptr %this1, i32 0, i32 1
  ret ptr %m_neg
}

; Function Attrs: mustprogress uwtable
define hidden noundef zeroext i1 @_ZNK11doc_manager7is_fullERK3doc(ptr noundef nonnull align 8 dereferenceable(1080) %this, ptr noundef nonnull align 8 dereferenceable(88) %src) #4 align 2 {
entry:
  %this.addr = alloca ptr, align 8
  %src.addr = alloca ptr, align 8
  store ptr %this, ptr %this.addr, align 8
  store ptr %src, ptr %src.addr, align 8
  %this1 = load ptr, ptr %this.addr, align 8
  %0 = load ptr, ptr %src.addr, align 8
  %call = call noundef nonnull align 8 dereferenceable(80) ptr @_ZNK3doc3negEv(ptr noundef nonnull align 8 dereferenceable(88) %0)
  %call2 = call noundef zeroext i1 @_ZNK10union_bvecI11tbv_manager3tbvE8is_emptyEv(ptr noundef nonnull align 8 dereferenceable(80) %call)
  br i1 %call2, label %land.rhs, label %land.end

land.rhs:                                         ; preds = %entry
  %m = getelementptr inbounds %class.doc_manager, ptr %this1, i32 0, i32 0
  %1 = load ptr, ptr %src.addr, align 8
  %call3 = call noundef nonnull align 4 dereferenceable(4) ptr @_ZNK3doc3posEv(ptr noundef nonnull align 8 dereferenceable(88) %1)
  %m_full = getelementptr inbounds %class.doc_manager, ptr %this1, i32 0, i32 1
  %2 = load ptr, ptr %m_full, align 8
  %call4 = call noundef zeroext i1 @_ZNK11tbv_manager6equalsERK3tbvS2_(ptr noundef nonnull align 8 dereferenceable(552) %m, ptr noundef nonnull align 4 dereferenceable(4) %call3, ptr noundef nonnull align 4 dereferenceable(4) %2)
  br label %land.end

land.end:                                         ; preds = %land.rhs, %entry
  %3 = phi i1 [ false, %entry ], [ %call4, %land.rhs ]
  ret i1 %3
}