; Function Attrs: mustprogress uwtable
define hidden noundef zeroext i1 @_ZNK11doc_manager7is_fullERK3doc(ptr noundef nonnull align 8 dereferenceable(1080) %this, ptr nocapture noundef nonnull readonly align 8 dereferenceable(88) %src) local_unnamed_addr #3 align 2 {
entry:
  %m_pos.i.i = getelementptr inbounds i8, ptr %src, i64 16
  %0 = load i32, ptr %m_pos.i.i, align 8
  %cmp.i.i = icmp eq i32 %0, 0
  br i1 %cmp.i.i, label %land.rhs, label %land.end

land.rhs:                                         ; preds = %entry
  %1 = load ptr, ptr %src, align 8
  %m_full = getelementptr inbounds i8, ptr %this, i64 552
  %2 = load ptr, ptr %m_full, align 8
  %call4 = tail call noundef zeroext i1 @_ZNK11tbv_manager6equalsERK3tbvS2_(ptr noundef nonnull align 8 dereferenceable(552) %this, ptr noundef nonnull align 4 dereferenceable(4) %1, ptr noundef nonnull align 4 dereferenceable(4) %2)
  br label %land.end

land.end:                                         ; preds = %land.rhs, %entry
  %3 = phi i1 [ false, %entry ], [ %call4, %land.rhs ]
  ret i1 %3
}